; Function Attrs: mustprogress nounwind uwtable
define dso_local void @_ZN4llvm18CodeGenSubRegIndex18setConcatenationOfENS_8ArrayRefIPS0_EE(ptr noundef nonnull align 8 dereferenceable(272) %0, ptr %1, i64 %2) local_unnamed_addr #0 align 2 {
  %4 = getelementptr inbounds nuw i8, ptr %0, i64 168
  %5 = tail call noundef zeroext i1 @_ZNK4llvm15SmallVectorBaseIjE5emptyEv(ptr noundef nonnull align 8 dereferenceable(16) %4) #25
  br i1 %5, label %6, label %10

6:                                                ; preds = %3
  %7 = getelementptr inbounds ptr, ptr %1, i64 %2
  %8 = tail call noundef i64 @_ZNK4llvm15SmallVectorBaseIjE4sizeEv(ptr noundef nonnull align 8 dereferenceable(16) %4) #25
  %9 = getelementptr inbounds i8, ptr %0, i64 176
  store i32 0, ptr %9, align 8
  tail call void @_ZN4llvm15SmallVectorImplIPNS_18CodeGenSubRegIndexEE6appendIPKS2_vEEvT_S7_(ptr noundef nonnull align 8 dereferenceable(16) %4, ptr noundef %1, ptr noundef %7)
  br label %10

10:                                               ; preds = %3, %6
  ret void
}